EXPORTS
	_Z9VghwPanic10TVghwPanicPcS0_S0_i @ 1 NONAME
	_ZN10CVghwUtils14MapToHWAddressEiRm @ 2 NONAME
	_ZN10CVghwUtils20DriverExecuteCommandER22RemoteFunctionCallData @ 3 NONAME
	_ZN10CVghwUtils11InitStaticsEv @ 4 NONAME
	_ZN10CVghwUtils5AllocEi @ 5 NONAME
	_ZN10CVghwUtils4FreeEPv @ 6 NONAME
	_ZN10CVghwUtils7GetHeapEv @ 7 NONAME
	_ZN10CVghwUtils16SwitchToVghwHeapEv @ 8 NONAME
	_ZN10CVghwUtils18SwitchFromVghwHeapEP5RHeap @ 9 NONAME
	Reserved10 @ 10 NONAME ABSENT
	Reserved11 @ 11 NONAME ABSENT
	_ZN10CVghwUtils17CreateThreadStateEv @ 12 NONAME
	_ZN10CVghwUtils18ReleaseThreadStateEv @ 13 NONAME
	_ZN10CVghwUtils14EglThreadStateEv @ 14 NONAME
	_ZN10CVghwUtils9VgContextEv @ 15 NONAME
	_ZN10CVghwUtils11GlesContextEv @ 16 NONAME
	_ZN15TEglThreadState8EglErrorEv @ 17 NONAME
	_ZN15TEglThreadState17ExecEglBooleanCmdER6EglRFC @ 18 NONAME
	_ZN15TEglThreadState17ExecEglContextCmdER6EglRFC @ 19 NONAME
	_ZN15TEglThreadState17ExecEglSurfaceCmdER6EglRFC @ 20 NONAME
	_ZN10CVghwUtils16EglManagementApiEv @ 21 NONAME
	_ZN10CVghwUtils15EglGetSgHandlesEyPy @ 22 NONAME
	_ZN10CVghwUtils14DestroyStaticsEv @ 23 NONAME
	_ZN10CVghwUtils19SetEglManagementApiEP17MEglManagementApi @ 24 NONAME
	_ZN10CVghwUtils14SetVgApiForEglEP12MVgApiForEgl @ 25 NONAME
	_ZN10CVghwUtils18SetGles11ApiForEglEP16MGles11ApiForEgl @ 26 NONAME
	_ZN10CVghwUtils17SetGles2ApiForEglEP15MGles2ApiForEgl @ 27 NONAME
	_ZN10CVghwUtils11VgApiForEglEv @ 28 NONAME
	_ZN10CVghwUtils15Gles11ApiForEglEv @ 29 NONAME
	_ZN10CVghwUtils14Gles2ApiForEglEv @ 30 NONAME
        _ZN10CVghwUtils25GetFrameBufferBaseAddressERm @ 31 NONAME




